
_main:

;main.c,9 :: 		void main() {
;main.c,10 :: 		TRISA=0b00000000; // [][][][LED][][][][]
	CLRF        TRISA+0 
;main.c,11 :: 		TRISD=0b00000000; // [][][][][LEDB][LEDY][LEDG][LEDR]
	CLRF        TRISD+0 
;main.c,13 :: 		LATA=0x00;
	CLRF        LATA+0 
;main.c,14 :: 		LATD=0x00;
	CLRF        LATD+0 
;main.c,16 :: 		while(1){
L_main0:
;main.c,17 :: 		LED=!LED;
	BTG         LATA4_bit+0, BitPos(LATA4_bit+0) 
;main.c,25 :: 		LEDR=1; delay_ms(50); LEDR=0; delay_ms(50);
	BSF         LATD0_bit+0, BitPos(LATD0_bit+0) 
	MOVLW       4
	MOVWF       R11, 0
	MOVLW       12
	MOVWF       R12, 0
	MOVLW       51
	MOVWF       R13, 0
L_main2:
	DECFSZ      R13, 1, 1
	BRA         L_main2
	DECFSZ      R12, 1, 1
	BRA         L_main2
	DECFSZ      R11, 1, 1
	BRA         L_main2
	NOP
	NOP
	BCF         LATD0_bit+0, BitPos(LATD0_bit+0) 
	MOVLW       4
	MOVWF       R11, 0
	MOVLW       12
	MOVWF       R12, 0
	MOVLW       51
	MOVWF       R13, 0
L_main3:
	DECFSZ      R13, 1, 1
	BRA         L_main3
	DECFSZ      R12, 1, 1
	BRA         L_main3
	DECFSZ      R11, 1, 1
	BRA         L_main3
	NOP
	NOP
;main.c,26 :: 		LEDR=1; delay_ms(50); LEDR=0; delay_ms(50);
	BSF         LATD0_bit+0, BitPos(LATD0_bit+0) 
	MOVLW       4
	MOVWF       R11, 0
	MOVLW       12
	MOVWF       R12, 0
	MOVLW       51
	MOVWF       R13, 0
L_main4:
	DECFSZ      R13, 1, 1
	BRA         L_main4
	DECFSZ      R12, 1, 1
	BRA         L_main4
	DECFSZ      R11, 1, 1
	BRA         L_main4
	NOP
	NOP
	BCF         LATD0_bit+0, BitPos(LATD0_bit+0) 
	MOVLW       4
	MOVWF       R11, 0
	MOVLW       12
	MOVWF       R12, 0
	MOVLW       51
	MOVWF       R13, 0
L_main5:
	DECFSZ      R13, 1, 1
	BRA         L_main5
	DECFSZ      R12, 1, 1
	BRA         L_main5
	DECFSZ      R11, 1, 1
	BRA         L_main5
	NOP
	NOP
;main.c,27 :: 		LEDR=1; delay_ms(50); LEDR=0; delay_ms(50);
	BSF         LATD0_bit+0, BitPos(LATD0_bit+0) 
	MOVLW       4
	MOVWF       R11, 0
	MOVLW       12
	MOVWF       R12, 0
	MOVLW       51
	MOVWF       R13, 0
L_main6:
	DECFSZ      R13, 1, 1
	BRA         L_main6
	DECFSZ      R12, 1, 1
	BRA         L_main6
	DECFSZ      R11, 1, 1
	BRA         L_main6
	NOP
	NOP
	BCF         LATD0_bit+0, BitPos(LATD0_bit+0) 
	MOVLW       4
	MOVWF       R11, 0
	MOVLW       12
	MOVWF       R12, 0
	MOVLW       51
	MOVWF       R13, 0
L_main7:
	DECFSZ      R13, 1, 1
	BRA         L_main7
	DECFSZ      R12, 1, 1
	BRA         L_main7
	DECFSZ      R11, 1, 1
	BRA         L_main7
	NOP
	NOP
;main.c,28 :: 		LEDR=1; delay_ms(50); LEDR=0; delay_ms(50);
	BSF         LATD0_bit+0, BitPos(LATD0_bit+0) 
	MOVLW       4
	MOVWF       R11, 0
	MOVLW       12
	MOVWF       R12, 0
	MOVLW       51
	MOVWF       R13, 0
L_main8:
	DECFSZ      R13, 1, 1
	BRA         L_main8
	DECFSZ      R12, 1, 1
	BRA         L_main8
	DECFSZ      R11, 1, 1
	BRA         L_main8
	NOP
	NOP
	BCF         LATD0_bit+0, BitPos(LATD0_bit+0) 
	MOVLW       4
	MOVWF       R11, 0
	MOVLW       12
	MOVWF       R12, 0
	MOVLW       51
	MOVWF       R13, 0
L_main9:
	DECFSZ      R13, 1, 1
	BRA         L_main9
	DECFSZ      R12, 1, 1
	BRA         L_main9
	DECFSZ      R11, 1, 1
	BRA         L_main9
	NOP
	NOP
;main.c,29 :: 		LEDR=1; delay_ms(50); LEDR=0; delay_ms(50);
	BSF         LATD0_bit+0, BitPos(LATD0_bit+0) 
	MOVLW       4
	MOVWF       R11, 0
	MOVLW       12
	MOVWF       R12, 0
	MOVLW       51
	MOVWF       R13, 0
L_main10:
	DECFSZ      R13, 1, 1
	BRA         L_main10
	DECFSZ      R12, 1, 1
	BRA         L_main10
	DECFSZ      R11, 1, 1
	BRA         L_main10
	NOP
	NOP
	BCF         LATD0_bit+0, BitPos(LATD0_bit+0) 
	MOVLW       4
	MOVWF       R11, 0
	MOVLW       12
	MOVWF       R12, 0
	MOVLW       51
	MOVWF       R13, 0
L_main11:
	DECFSZ      R13, 1, 1
	BRA         L_main11
	DECFSZ      R12, 1, 1
	BRA         L_main11
	DECFSZ      R11, 1, 1
	BRA         L_main11
	NOP
	NOP
;main.c,31 :: 		LEDB=1; delay_ms(50); LEDB=0; delay_ms(50);
	BSF         LATD3_bit+0, BitPos(LATD3_bit+0) 
	MOVLW       4
	MOVWF       R11, 0
	MOVLW       12
	MOVWF       R12, 0
	MOVLW       51
	MOVWF       R13, 0
L_main12:
	DECFSZ      R13, 1, 1
	BRA         L_main12
	DECFSZ      R12, 1, 1
	BRA         L_main12
	DECFSZ      R11, 1, 1
	BRA         L_main12
	NOP
	NOP
	BCF         LATD3_bit+0, BitPos(LATD3_bit+0) 
	MOVLW       4
	MOVWF       R11, 0
	MOVLW       12
	MOVWF       R12, 0
	MOVLW       51
	MOVWF       R13, 0
L_main13:
	DECFSZ      R13, 1, 1
	BRA         L_main13
	DECFSZ      R12, 1, 1
	BRA         L_main13
	DECFSZ      R11, 1, 1
	BRA         L_main13
	NOP
	NOP
;main.c,32 :: 		LEDB=1; delay_ms(50); LEDB=0; delay_ms(50);
	BSF         LATD3_bit+0, BitPos(LATD3_bit+0) 
	MOVLW       4
	MOVWF       R11, 0
	MOVLW       12
	MOVWF       R12, 0
	MOVLW       51
	MOVWF       R13, 0
L_main14:
	DECFSZ      R13, 1, 1
	BRA         L_main14
	DECFSZ      R12, 1, 1
	BRA         L_main14
	DECFSZ      R11, 1, 1
	BRA         L_main14
	NOP
	NOP
	BCF         LATD3_bit+0, BitPos(LATD3_bit+0) 
	MOVLW       4
	MOVWF       R11, 0
	MOVLW       12
	MOVWF       R12, 0
	MOVLW       51
	MOVWF       R13, 0
L_main15:
	DECFSZ      R13, 1, 1
	BRA         L_main15
	DECFSZ      R12, 1, 1
	BRA         L_main15
	DECFSZ      R11, 1, 1
	BRA         L_main15
	NOP
	NOP
;main.c,33 :: 		LEDB=1; delay_ms(50); LEDB=0; delay_ms(50);
	BSF         LATD3_bit+0, BitPos(LATD3_bit+0) 
	MOVLW       4
	MOVWF       R11, 0
	MOVLW       12
	MOVWF       R12, 0
	MOVLW       51
	MOVWF       R13, 0
L_main16:
	DECFSZ      R13, 1, 1
	BRA         L_main16
	DECFSZ      R12, 1, 1
	BRA         L_main16
	DECFSZ      R11, 1, 1
	BRA         L_main16
	NOP
	NOP
	BCF         LATD3_bit+0, BitPos(LATD3_bit+0) 
	MOVLW       4
	MOVWF       R11, 0
	MOVLW       12
	MOVWF       R12, 0
	MOVLW       51
	MOVWF       R13, 0
L_main17:
	DECFSZ      R13, 1, 1
	BRA         L_main17
	DECFSZ      R12, 1, 1
	BRA         L_main17
	DECFSZ      R11, 1, 1
	BRA         L_main17
	NOP
	NOP
;main.c,34 :: 		LEDB=1; delay_ms(50); LEDB=0; delay_ms(50);
	BSF         LATD3_bit+0, BitPos(LATD3_bit+0) 
	MOVLW       4
	MOVWF       R11, 0
	MOVLW       12
	MOVWF       R12, 0
	MOVLW       51
	MOVWF       R13, 0
L_main18:
	DECFSZ      R13, 1, 1
	BRA         L_main18
	DECFSZ      R12, 1, 1
	BRA         L_main18
	DECFSZ      R11, 1, 1
	BRA         L_main18
	NOP
	NOP
	BCF         LATD3_bit+0, BitPos(LATD3_bit+0) 
	MOVLW       4
	MOVWF       R11, 0
	MOVLW       12
	MOVWF       R12, 0
	MOVLW       51
	MOVWF       R13, 0
L_main19:
	DECFSZ      R13, 1, 1
	BRA         L_main19
	DECFSZ      R12, 1, 1
	BRA         L_main19
	DECFSZ      R11, 1, 1
	BRA         L_main19
	NOP
	NOP
;main.c,35 :: 		LEDB=1; delay_ms(50); LEDB=0; delay_ms(50);
	BSF         LATD3_bit+0, BitPos(LATD3_bit+0) 
	MOVLW       4
	MOVWF       R11, 0
	MOVLW       12
	MOVWF       R12, 0
	MOVLW       51
	MOVWF       R13, 0
L_main20:
	DECFSZ      R13, 1, 1
	BRA         L_main20
	DECFSZ      R12, 1, 1
	BRA         L_main20
	DECFSZ      R11, 1, 1
	BRA         L_main20
	NOP
	NOP
	BCF         LATD3_bit+0, BitPos(LATD3_bit+0) 
	MOVLW       4
	MOVWF       R11, 0
	MOVLW       12
	MOVWF       R12, 0
	MOVLW       51
	MOVWF       R13, 0
L_main21:
	DECFSZ      R13, 1, 1
	BRA         L_main21
	DECFSZ      R12, 1, 1
	BRA         L_main21
	DECFSZ      R11, 1, 1
	BRA         L_main21
	NOP
	NOP
;main.c,36 :: 		}
	GOTO        L_main0
;main.c,37 :: 		}
L_end_main:
	GOTO        $+0
; end of _main
